target datalayout = "e-m:e-p270:32:32-p271:32:32-p272:64:64-i64:64-i128:128-f80:128-n8:16:32:64-S128"
target triple = "x86_64-pc-linux-gnu"

%struct.expert_field = type { i32, i32 }
%struct._packet_info = type { ptr, ptr, i32, i32, %struct.nstime_t, %struct.nstime_t, %struct.nstime_t, i8, ptr, ptr, ptr, ptr, %struct._address, %struct._address, %struct._address, %struct._address, %struct._address, %struct._address, i32, ptr, i8, [3 x i8], %struct.anon, i32, i32, i32, i32, ptr, i8, ptr, ptr, i16, i16, i32, i32, i16, i32, i32, ptr, ptr, ptr, i8, i8, i16, i16, i16, i32, i16, i16, ptr, ptr, ptr, ptr, ptr, i32, i32 }
%struct.nstime_t = type { i64, i32 }
%struct._address = type { i32, i32, ptr, ptr }
%struct.anon = type { i8, [3 x i8] }

@hf_csq_ber = internal global i32 0, align 4
@hf_csq_rssi = internal global i32 0, align 4
@ei_csq_ber = internal global %struct.expert_field zeroinitializer, align 4
@ei_csq_rssi = internal global %struct.expert_field zeroinitializer, align 4

; Function Attrs: alwaysinline nounwind
define internal ptr @memcpy.inline(ptr noalias %0, ptr noalias %1, i64 %2) #9 {
  %4 = alloca ptr, align 8
  %5 = alloca ptr, align 8
  %6 = alloca i64, align 8
  store ptr %0, ptr %4, align 8
  store ptr %1, ptr %5, align 8
  store i64 %2, ptr %6, align 8
  %7 = load ptr, ptr %4, align 8
  %8 = load ptr, ptr %5, align 8
  %9 = load i64, ptr %6, align 8
  %10 = load ptr, ptr %4, align 8
  %11 = call i64 @llvm.objectsize.i64.p0(ptr %10, i1 false, i1 true, i1 true)
  %12 = call ptr @__memcpy_chk(ptr noundef %7, ptr noundef %8, i64 noundef %9, i64 noundef %11) #12
  ret ptr %12
}

; Function Attrs: null_pointer_is_valid sspstrong uwtable
define internal i32 @get_uint_parameter(ptr noundef %0, ptr noundef %1, i32 noundef %2) #0 {
  %4 = alloca ptr, align 8
  %5 = alloca ptr, align 8
  %6 = alloca i32, align 4
  %7 = alloca i32, align 4
  %8 = alloca ptr, align 8
  store ptr %0, ptr %4, align 8
  store ptr %1, ptr %5, align 8
  store i32 %2, ptr %6, align 4
  call void @llvm.lifetime.start.p0(i64 4, ptr %7) #12
  call void @llvm.lifetime.start.p0(i64 8, ptr %8) #12
  %9 = load ptr, ptr %4, align 8
  %10 = load i32, ptr %6, align 4
  %11 = add i32 %10, 1
  %12 = sext i32 %11 to i64
  %13 = call noalias ptr @wmem_alloc(ptr noundef %9, i64 noundef %12) #13
  store ptr %13, ptr %8, align 8
  %14 = load ptr, ptr %8, align 8
  %15 = load ptr, ptr %5, align 8
  %16 = load i32, ptr %6, align 4
  %17 = sext i32 %16 to i64
  %18 = call ptr @memcpy.inline(ptr noundef %14, ptr noundef %15, i64 noundef %17) #12
  %19 = load ptr, ptr %8, align 8
  %20 = load i32, ptr %6, align 4
  %21 = sext i32 %20 to i64
  %22 = getelementptr i8, ptr %19, i64 %21
  store i8 0, ptr %22, align 1
  %23 = load ptr, ptr %8, align 8
  %24 = call i64 @g_ascii_strtoull(ptr noundef %23, ptr noundef null, i32 noundef 10)
  %25 = trunc i64 %24 to i32
  store i32 %25, ptr %7, align 4
  %26 = load i32, ptr %7, align 4
  call void @llvm.lifetime.end.p0(i64 8, ptr %8) #12
  call void @llvm.lifetime.end.p0(i64 4, ptr %7) #12
  ret i32 %26
}

; Function Attrs: null_pointer_is_valid sspstrong uwtable
define internal zeroext i1 @dissect_csq_parameter(ptr noundef %0, ptr noundef %1, ptr noundef %2, i32 noundef %3, i32 noundef %4, i16 noundef zeroext %5, ptr noundef %6, i32 noundef %7, i32 noundef %8, ptr noundef %9, ptr noundef %10) #0 {
  %12 = alloca i1, align 1
  %13 = alloca ptr, align 8
  %14 = alloca ptr, align 8
  %15 = alloca ptr, align 8
  %16 = alloca i32, align 4
  %17 = alloca i32, align 4
  %18 = alloca i16, align 2
  %19 = alloca ptr, align 8
  %20 = alloca i32, align 4
  %21 = alloca i32, align 4
  %22 = alloca ptr, align 8
  %23 = alloca ptr, align 8
  %24 = alloca ptr, align 8
  %25 = alloca i32, align 4
  %26 = alloca i32, align 4
  store ptr %0, ptr %13, align 8
  store ptr %1, ptr %14, align 8
  store ptr %2, ptr %15, align 8
  store i32 %3, ptr %16, align 4
  store i32 %4, ptr %17, align 4
  store i16 %5, ptr %18, align 2
  store ptr %6, ptr %19, align 8
  store i32 %7, ptr %20, align 4
  store i32 %8, ptr %21, align 4
  store ptr %9, ptr %22, align 8
  store ptr %10, ptr %23, align 8
  call void @llvm.lifetime.start.p0(i64 8, ptr %24) #12
  call void @llvm.lifetime.start.p0(i64 4, ptr %25) #12
  %27 = load i32, ptr %17, align 4
  %28 = icmp eq i32 %27, 1
  br i1 %28, label %29, label %33

29:                                               ; preds = %11
  %30 = load i16, ptr %18, align 2
  %31 = zext i16 %30 to i32
  %32 = icmp eq i32 %31, 58
  br i1 %32, label %34, label %33

33:                                               ; preds = %29, %11
  store i1 false, ptr %12, align 1
  store i32 1, ptr %26, align 4
  br label %89

34:                                               ; preds = %29
  %35 = load i32, ptr %20, align 4
  %36 = icmp ugt i32 %35, 1
  br i1 %36, label %37, label %38

37:                                               ; preds = %34
  store i1 false, ptr %12, align 1
  store i32 1, ptr %26, align 4
  br label %89

38:                                               ; preds = %34
  %39 = load i32, ptr %20, align 4
  switch i32 %39, label %88 [
    i32 0, label %40
    i32 1, label %64
  ]

40:                                               ; preds = %38
  %41 = load ptr, ptr %14, align 8
  %42 = getelementptr inbounds nuw %struct._packet_info, ptr %41, i32 0, i32 51
  %43 = load ptr, ptr %42, align 8
  %44 = load ptr, ptr %19, align 8
  %45 = load i32, ptr %21, align 4
  %46 = call i32 @get_uint_parameter(ptr noundef %43, ptr noundef %44, i32 noundef %45)
  store i32 %46, ptr %25, align 4
  %47 = load ptr, ptr %15, align 8
  %48 = load i32, ptr @hf_csq_rssi, align 4
  %49 = load ptr, ptr %13, align 8
  %50 = load i32, ptr %16, align 4
  %51 = load i32, ptr %21, align 4
  %52 = load i32, ptr %25, align 4
  %53 = call ptr @proto_tree_add_uint(ptr noundef %47, i32 noundef %48, ptr noundef %49, i32 noundef %50, i32 noundef %51, i32 noundef %52)
  store ptr %53, ptr %24, align 8
  %54 = load i32, ptr %25, align 4
  %55 = icmp ugt i32 %54, 31
  br i1 %55, label %56, label %63

56:                                               ; preds = %40
  %57 = load i32, ptr %25, align 4
  %58 = icmp ne i32 %57, 99
  br i1 %58, label %59, label %63

59:                                               ; preds = %56
  %60 = load ptr, ptr %14, align 8
  %61 = load ptr, ptr %24, align 8
  %62 = call ptr @expert_add_info(ptr noundef %60, ptr noundef %61, ptr noundef @ei_csq_rssi)
  br label %63

63:                                               ; preds = %59, %56, %40
  br label %88

64:                                               ; preds = %38
  %65 = load ptr, ptr %14, align 8
  %66 = getelementptr inbounds nuw %struct._packet_info, ptr %65, i32 0, i32 51
  %67 = load ptr, ptr %66, align 8
  %68 = load ptr, ptr %19, align 8
  %69 = load i32, ptr %21, align 4
  %70 = call i32 @get_uint_parameter(ptr noundef %67, ptr noundef %68, i32 noundef %69)
  store i32 %70, ptr %25, align 4
  %71 = load ptr, ptr %15, align 8
  %72 = load i32, ptr @hf_csq_ber, align 4
  %73 = load ptr, ptr %13, align 8
  %74 = load i32, ptr %16, align 4
  %75 = load i32, ptr %21, align 4
  %76 = load i32, ptr %25, align 4
  %77 = call ptr @proto_tree_add_uint(ptr noundef %71, i32 noundef %72, ptr noundef %73, i32 noundef %74, i32 noundef %75, i32 noundef %76)
  store ptr %77, ptr %24, align 8
  %78 = load i32, ptr %25, align 4
  %79 = icmp ugt i32 %78, 7
  br i1 %79, label %80, label %87

80:                                               ; preds = %64
  %81 = load i32, ptr %25, align 4
  %82 = icmp ne i32 %81, 99
  br i1 %82, label %83, label %87

83:                                               ; preds = %80
  %84 = load ptr, ptr %14, align 8
  %85 = load ptr, ptr %24, align 8
  %86 = call ptr @expert_add_info(ptr noundef %84, ptr noundef %85, ptr noundef @ei_csq_ber)
  br label %87

87:                                               ; preds = %83, %80, %64
  br label %88

88:                                               ; preds = %38, %87, %63
  store i1 true, ptr %12, align 1
  store i32 1, ptr %26, align 4
  br label %89

89:                                               ; preds = %88, %37, %33
  call void @llvm.lifetime.end.p0(i64 4, ptr %25) #12
  call void @llvm.lifetime.end.p0(i64 8, ptr %24) #12
  %90 = load i1, ptr %12, align 1
  ret i1 %90
}