; Function Attrs: null_pointer_is_valid sspstrong uwtable
define internal noundef zeroext i1 @dissect_csq_parameter(ptr noundef %0, ptr noundef %1, ptr noundef %2, i32 noundef %3, i32 noundef %4, i16 noundef zeroext %5, ptr noundef readonly captures(none) %6, i32 noundef %7, i32 noundef %8, ptr readnone captures(none) %9, ptr readnone captures(none) %10) #0 {
  %12 = icmp eq i32 %4, 1
  %13 = icmp eq i16 %5, 58
  %or.cond.not37.not40 = and i1 %12, %13
  %14 = icmp ult i32 %7, 2
  %or.cond35.not = and i1 %or.cond.not37.not40, %14
  br i1 %or.cond35.not, label %15, label %39

15:                                               ; preds = %11
  %trunc = trunc nuw i32 %7 to i1
  %16 = getelementptr inbounds nuw i8, ptr %1, i64 408
  %17 = load ptr, ptr %16, align 8
  %18 = add i32 %8, 1
  %19 = sext i32 %18 to i64
  %20 = tail call noalias ptr @wmem_alloc(ptr noundef %17, i64 noundef %19) #12
  %21 = sext i32 %8 to i64
  %22 = icmp ne i32 %18, -1
  tail call void @llvm.assume(i1 %22)
  %23 = tail call ptr @__memcpy_chk(ptr noundef %20, ptr noundef readonly %6, i64 noundef range(i64 -2147483648, 2147483648) %21, i64 noundef %19) #13
  %24 = getelementptr i8, ptr %20, i64 %21
  store i8 0, ptr %24, align 1
  %25 = tail call i64 @g_ascii_strtoull(ptr noundef %20, ptr noundef null, i32 noundef 10)
  %26 = trunc i64 %25 to i32
  br i1 %trunc, label %34, label %27

27:                                               ; preds = %15
  %28 = load i32, ptr @hf_csq_rssi, align 4
  %29 = tail call ptr @proto_tree_add_uint(ptr noundef %2, i32 noundef %28, ptr noundef %0, i32 noundef %3, i32 noundef %8, i32 noundef %26)
  %30 = icmp ugt i32 %26, 31
  %31 = icmp ne i32 %26, 99
  %or.cond4 = and i1 %30, %31
  br i1 %or.cond4, label %32, label %39

32:                                               ; preds = %27
  %33 = tail call ptr @expert_add_info(ptr noundef %1, ptr noundef %29, ptr noundef nonnull @ei_csq_rssi)
  br label %39

34:                                               ; preds = %15
  %35 = load i32, ptr @hf_csq_ber, align 4
  %36 = tail call ptr @proto_tree_add_uint(ptr noundef %2, i32 noundef %35, ptr noundef %0, i32 noundef %3, i32 noundef %8, i32 noundef %26)
  switch i32 %26, label %37 [
    i32 99, label %39
    i32 7, label %39
    i32 6, label %39
    i32 5, label %39
    i32 4, label %39
    i32 3, label %39
    i32 2, label %39
    i32 1, label %39
    i32 0, label %39
  ]

37:                                               ; preds = %34
  %38 = tail call ptr @expert_add_info(ptr noundef %1, ptr noundef %36, ptr noundef nonnull @ei_csq_ber)
  br label %39

39:                                               ; preds = %32, %27, %37, %34, %34, %34, %34, %34, %34, %34, %34, %34, %11
  ret i1 %or.cond35.not
}